target datalayout = "e-m:e-p270:32:32-p271:32:32-p272:64:64-i64:64-i128:128-f80:128-n8:16:32:64-S128"
target triple = "x86_64-pc-linux-gnu"

%struct._typeobject = type { %struct.PyVarObject, ptr, i64, i64, ptr, i64, ptr, ptr, ptr, ptr, ptr, ptr, ptr, ptr, ptr, ptr, ptr, ptr, ptr, i64, ptr, ptr, ptr, ptr, i64, ptr, ptr, ptr, ptr, ptr, ptr, ptr, ptr, ptr, i64, ptr, ptr, ptr, ptr, ptr, ptr, ptr, ptr, ptr, ptr, ptr, i32, ptr, ptr, i8, i16 }
%struct.PyVarObject = type { %struct._object, i64 }
%struct._object = type { %union.anon, ptr }
%union.anon = type { i64 }
%struct._longobject = type { %struct._object, %struct._PyLongValue }
%struct._PyLongValue = type { i64, [1 x i32] }
%struct.anon = type { i32, i32 }

@PyDict_Type = external global %struct._typeobject, align 8
@_Py_NotImplementedStruct = external global %struct._object, align 8
@_Py_FalseStruct = external global %struct._longobject, align 8
@_Py_TrueStruct = external global %struct._longobject, align 8

; Function Attrs: alwaysinline nounwind uwtable
define internal void @Py_INCREF(ptr noundef %0) #4 {
  %2 = alloca ptr, align 8
  %3 = alloca i32, align 4
  %4 = alloca i32, align 4
  store ptr %0, ptr %2, align 8, !tbaa !42
  call void @llvm.lifetime.start.p0(i64 4, ptr %3) #7
  %5 = load ptr, ptr %2, align 8, !tbaa !42
  %6 = getelementptr inbounds nuw %struct._object, ptr %5, i32 0, i32 0
  %7 = getelementptr inbounds nuw %struct.anon, ptr %6, i32 0, i32 0
  %8 = load i32, ptr %7, align 8, !tbaa !74
  store i32 %8, ptr %3, align 4, !tbaa !43
  %9 = load i32, ptr %3, align 4, !tbaa !43
  %10 = icmp slt i32 %9, 0
  br i1 %10, label %11, label %12

11:                                               ; preds = %1
  store i32 1, ptr %4, align 4
  br label %18

12:                                               ; preds = %1
  %13 = load i32, ptr %3, align 4, !tbaa !43
  %14 = add i32 %13, 1
  %15 = load ptr, ptr %2, align 8, !tbaa !42
  %16 = getelementptr inbounds nuw %struct._object, ptr %15, i32 0, i32 0
  %17 = getelementptr inbounds nuw %struct.anon, ptr %16, i32 0, i32 0
  store i32 %14, ptr %17, align 8, !tbaa !74
  store i32 0, ptr %4, align 4
  br label %18

18:                                               ; preds = %12, %11
  call void @llvm.lifetime.end.p0(i64 4, ptr %3) #7
  %19 = load i32, ptr %4, align 4
  switch i32 %19, label %21 [
    i32 0, label %20
    i32 1, label %20
  ]

20:                                               ; preds = %18, %18
  ret void

21:                                               ; preds = %18
  unreachable
}

; Function Attrs: alwaysinline nounwind uwtable
define internal i32 @_Py_IsImmortal(ptr noundef %0) #4 {
  %2 = alloca ptr, align 8
  store ptr %0, ptr %2, align 8, !tbaa !42
  %3 = load ptr, ptr %2, align 8, !tbaa !42
  %4 = getelementptr inbounds nuw %struct._object, ptr %3, i32 0, i32 0
  %5 = getelementptr inbounds nuw %struct.anon, ptr %4, i32 0, i32 0
  %6 = load i32, ptr %5, align 8, !tbaa !74
  %7 = icmp slt i32 %6, 0
  %8 = zext i1 %7 to i32
  ret i32 %8
}

; Function Attrs: inlinehint nounwind uwtable
define internal i32 @Py_IS_TYPE(ptr noundef %0, ptr noundef %1) #3 {
  %3 = alloca ptr, align 8
  %4 = alloca ptr, align 8
  store ptr %0, ptr %3, align 8, !tbaa !42
  store ptr %1, ptr %4, align 8, !tbaa !76
  %5 = load ptr, ptr %3, align 8, !tbaa !42
  %6 = call ptr @_Py_TYPE(ptr noundef %5)
  %7 = load ptr, ptr %4, align 8, !tbaa !76
  %8 = icmp eq ptr %6, %7
  %9 = zext i1 %8 to i32
  ret i32 %9
}

; Function Attrs: inlinehint nounwind uwtable
define internal ptr @_Py_NewRef(ptr noundef %0) #3 {
  %2 = alloca ptr, align 8
  store ptr %0, ptr %2, align 8, !tbaa !42
  %3 = load ptr, ptr %2, align 8, !tbaa !42
  call void @Py_INCREF(ptr noundef %3)
  %4 = load ptr, ptr %2, align 8, !tbaa !42
  ret ptr %4
}

; Function Attrs: alwaysinline nounwind uwtable
define internal void @Py_DECREF(ptr noundef %0) #4 {
  %2 = alloca ptr, align 8
  store ptr %0, ptr %2, align 8, !tbaa !42
  %3 = load ptr, ptr %2, align 8, !tbaa !42
  %4 = call i32 @_Py_IsImmortal(ptr noundef %3)
  %5 = icmp ne i32 %4, 0
  br i1 %5, label %6, label %7

6:                                                ; preds = %1
  br label %16

7:                                                ; preds = %1
  %8 = load ptr, ptr %2, align 8, !tbaa !42
  %9 = getelementptr inbounds nuw %struct._object, ptr %8, i32 0, i32 0
  %10 = getelementptr inbounds nuw %struct.anon, ptr %9, i32 0, i32 0
  %11 = load i32, ptr %10, align 8, !tbaa !74
  %12 = add i32 %11, -1
  store i32 %12, ptr %10, align 8, !tbaa !74
  %13 = icmp eq i32 %12, 0
  br i1 %13, label %14, label %16

14:                                               ; preds = %7
  %15 = load ptr, ptr %2, align 8, !tbaa !42
  call void @_Py_Dealloc(ptr noundef %15)
  br label %16

16:                                               ; preds = %6, %14, %7
  ret void
}

; Function Attrs: inlinehint nounwind uwtable
define internal i32 @PyType_HasFeature(ptr noundef %0, i64 noundef %1) #3 {
  %3 = alloca ptr, align 8
  %4 = alloca i64, align 8
  %5 = alloca i64, align 8
  store ptr %0, ptr %3, align 8, !tbaa !76
  store i64 %1, ptr %4, align 8, !tbaa !55
  call void @llvm.lifetime.start.p0(i64 8, ptr %5) #7
  %6 = load ptr, ptr %3, align 8, !tbaa !76
  %7 = getelementptr inbounds nuw %struct._typeobject, ptr %6, i32 0, i32 19
  %8 = load i64, ptr %7, align 8, !tbaa !77
  store i64 %8, ptr %5, align 8, !tbaa !55
  %9 = load i64, ptr %5, align 8, !tbaa !55
  %10 = load i64, ptr %4, align 8, !tbaa !55
  %11 = and i64 %9, %10
  %12 = icmp ne i64 %11, 0
  %13 = zext i1 %12 to i32
  call void @llvm.lifetime.end.p0(i64 8, ptr %5) #7
  ret i32 %13
}

; Function Attrs: inlinehint nounwind uwtable
define internal ptr @_Py_TYPE(ptr noundef %0) #3 {
  %2 = alloca ptr, align 8
  store ptr %0, ptr %2, align 8, !tbaa !42
  %3 = load ptr, ptr %2, align 8, !tbaa !42
  %4 = getelementptr inbounds nuw %struct._object, ptr %3, i32 0, i32 1
  %5 = load ptr, ptr %4, align 8, !tbaa !68
  ret ptr %5
}

; Function Attrs: inlinehint nounwind uwtable
define internal i32 @PyObject_TypeCheck(ptr noundef %0, ptr noundef %1) #3 {
  %3 = alloca ptr, align 8
  %4 = alloca ptr, align 8
  store ptr %0, ptr %3, align 8, !tbaa !42
  store ptr %1, ptr %4, align 8, !tbaa !76
  %5 = load ptr, ptr %3, align 8, !tbaa !42
  %6 = load ptr, ptr %4, align 8, !tbaa !76
  %7 = call i32 @Py_IS_TYPE(ptr noundef %5, ptr noundef %6)
  %8 = icmp ne i32 %7, 0
  br i1 %8, label %15, label %9

9:                                                ; preds = %2
  %10 = load ptr, ptr %3, align 8, !tbaa !42
  %11 = call ptr @_Py_TYPE(ptr noundef %10)
  %12 = load ptr, ptr %4, align 8, !tbaa !76
  %13 = call i32 @PyType_IsSubtype(ptr noundef %11, ptr noundef %12)
  %14 = icmp ne i32 %13, 0
  br label %15

15:                                               ; preds = %9, %2
  %16 = phi i1 [ true, %2 ], [ %14, %9 ]
  %17 = zext i1 %16 to i32
  ret i32 %17
}

; Function Attrs: nounwind uwtable
define internal ptr @odict_richcompare(ptr noundef %0, ptr noundef %1, i32 noundef %2) #0 {
  %4 = alloca ptr, align 8
  %5 = alloca ptr, align 8
  %6 = alloca ptr, align 8
  %7 = alloca i32, align 4
  %8 = alloca ptr, align 8
  %9 = alloca ptr, align 8
  %10 = alloca i32, align 4
  %11 = alloca i32, align 4
  store ptr %0, ptr %5, align 8, !tbaa !42
  store ptr %1, ptr %6, align 8, !tbaa !42
  store i32 %2, ptr %7, align 4, !tbaa !43
  %12 = load ptr, ptr %5, align 8, !tbaa !42
  %13 = call i32 @PyObject_TypeCheck(ptr noundef %12, ptr noundef @PyODict_Type)
  %14 = icmp ne i32 %13, 0
  br i1 %14, label %15, label %20

15:                                               ; preds = %3
  %16 = load ptr, ptr %6, align 8, !tbaa !42
  %17 = call ptr @_Py_TYPE(ptr noundef %16)
  %18 = call i32 @PyType_HasFeature(ptr noundef %17, i64 noundef 536870912)
  %19 = icmp ne i32 %18, 0
  br i1 %19, label %21, label %20

20:                                               ; preds = %15, %3
  store ptr @_Py_NotImplementedStruct, ptr %4, align 8
  br label %77

21:                                               ; preds = %15
  %22 = load i32, ptr %7, align 4, !tbaa !43
  %23 = icmp eq i32 %22, 2
  br i1 %23, label %27, label %24

24:                                               ; preds = %21
  %25 = load i32, ptr %7, align 4, !tbaa !43
  %26 = icmp eq i32 %25, 3
  br i1 %26, label %27, label %76

27:                                               ; preds = %24, %21
  call void @llvm.lifetime.start.p0(i64 8, ptr %8) #7
  call void @llvm.lifetime.start.p0(i64 8, ptr %9) #7
  call void @llvm.lifetime.start.p0(i64 4, ptr %10) #7
  %28 = load ptr, ptr getelementptr inbounds nuw (%struct._typeobject, ptr @PyDict_Type, i32 0, i32 23), align 8, !tbaa !54
  %29 = load ptr, ptr %5, align 8, !tbaa !42
  %30 = load ptr, ptr %6, align 8, !tbaa !42
  %31 = load i32, ptr %7, align 4, !tbaa !43
  %32 = call ptr %28(ptr noundef %29, ptr noundef %30, i32 noundef %31)
  store ptr %32, ptr %9, align 8, !tbaa !42
  %33 = load ptr, ptr %9, align 8, !tbaa !42
  %34 = icmp eq ptr %33, null
  br i1 %34, label %35, label %36

35:                                               ; preds = %27
  store ptr null, ptr %4, align 8
  store i32 1, ptr %11, align 4
  br label %75

36:                                               ; preds = %27
  %37 = load ptr, ptr %6, align 8, !tbaa !42
  %38 = call i32 @PyObject_TypeCheck(ptr noundef %37, ptr noundef @PyODict_Type)
  %39 = icmp ne i32 %38, 0
  br i1 %39, label %42, label %40

40:                                               ; preds = %36
  %41 = load ptr, ptr %9, align 8, !tbaa !42
  store ptr %41, ptr %4, align 8
  store i32 1, ptr %11, align 4
  br label %75

42:                                               ; preds = %36
  %43 = load i32, ptr %7, align 4, !tbaa !43
  %44 = icmp eq i32 %43, 2
  br i1 %44, label %45, label %50

45:                                               ; preds = %42
  %46 = load ptr, ptr %9, align 8, !tbaa !42
  %47 = icmp eq ptr %46, @_Py_FalseStruct
  br i1 %47, label %48, label %50

48:                                               ; preds = %45
  %49 = load ptr, ptr %9, align 8, !tbaa !42
  store ptr %49, ptr %4, align 8
  store i32 1, ptr %11, align 4
  br label %75

50:                                               ; preds = %45, %42
  %51 = load i32, ptr %7, align 4, !tbaa !43
  %52 = icmp eq i32 %51, 3
  br i1 %52, label %53, label %58

53:                                               ; preds = %50
  %54 = load ptr, ptr %9, align 8, !tbaa !42
  %55 = icmp eq ptr %54, @_Py_TrueStruct
  br i1 %55, label %56, label %58

56:                                               ; preds = %53
  %57 = load ptr, ptr %9, align 8, !tbaa !42
  store ptr %57, ptr %4, align 8
  store i32 1, ptr %11, align 4
  br label %75

58:                                               ; preds = %53, %50
  %59 = load ptr, ptr %9, align 8, !tbaa !42
  call void @Py_DECREF(ptr noundef %59)
  %60 = load ptr, ptr %5, align 8, !tbaa !42
  %61 = load ptr, ptr %6, align 8, !tbaa !42
  %62 = call i32 @_odict_keys_equal(ptr noundef %60, ptr noundef %61)
  store i32 %62, ptr %10, align 4, !tbaa !43
  %63 = load i32, ptr %10, align 4, !tbaa !43
  %64 = icmp slt i32 %63, 0
  br i1 %64, label %65, label %66

65:                                               ; preds = %58
  store ptr null, ptr %4, align 8
  store i32 1, ptr %11, align 4
  br label %75

66:                                               ; preds = %58
  %67 = load i32, ptr %10, align 4, !tbaa !43
  %68 = load i32, ptr %7, align 4, !tbaa !43
  %69 = icmp eq i32 %68, 2
  %70 = zext i1 %69 to i32
  %71 = icmp eq i32 %67, %70
  %72 = select i1 %71, ptr @_Py_TrueStruct, ptr @_Py_FalseStruct
  store ptr %72, ptr %8, align 8, !tbaa !42
  %73 = load ptr, ptr %8, align 8, !tbaa !42
  %74 = call ptr @_Py_NewRef(ptr noundef %73)
  store ptr %74, ptr %4, align 8
  store i32 1, ptr %11, align 4
  br label %75

75:                                               ; preds = %66, %65, %56, %48, %40, %35
  call void @llvm.lifetime.end.p0(i64 4, ptr %10) #7
  call void @llvm.lifetime.end.p0(i64 8, ptr %9) #7
  call void @llvm.lifetime.end.p0(i64 8, ptr %8) #7
  br label %77

76:                                               ; preds = %24
  store ptr @_Py_NotImplementedStruct, ptr %4, align 8
  br label %77

77:                                               ; preds = %76, %75, %20
  %78 = load ptr, ptr %4, align 8
  ret ptr %78
}