; Function Attrs: nounwind uwtable
define internal ptr @odict_richcompare(ptr noundef %0, ptr noundef %1, i32 noundef %2) #0 {
  %4 = getelementptr i8, ptr %0, i64 8
  %.val33 = load ptr, ptr %4, align 8, !tbaa !20
  %.not.i35 = icmp eq ptr %.val33, @PyODict_Type
  br i1 %.not.i35, label %PyObject_TypeCheck.exit.thread, label %PyObject_TypeCheck.exit

PyObject_TypeCheck.exit:                          ; preds = %3
  %5 = tail call i32 @PyType_IsSubtype(ptr noundef %.val33, ptr noundef nonnull @PyODict_Type) #8
  %.not40 = icmp eq i32 %5, 0
  br i1 %.not40, label %_Py_NewRef.exit, label %PyObject_TypeCheck.exit.thread

PyObject_TypeCheck.exit.thread:                   ; preds = %3, %PyObject_TypeCheck.exit
  %6 = getelementptr i8, ptr %1, i64 8
  %.val = load ptr, ptr %6, align 8, !tbaa !20
  %7 = getelementptr i8, ptr %.val, i64 168
  %.val32 = load i64, ptr %7, align 8, !tbaa !54
  %8 = and i64 %.val32, 536870912
  %.not30 = icmp eq i64 %8, 0
  br i1 %.not30, label %_Py_NewRef.exit, label %9

9:                                                ; preds = %PyObject_TypeCheck.exit.thread
  %10 = icmp eq i32 %2, 2
  %11 = icmp eq i32 %2, 3
  %12 = and i32 %2, -2
  %or.cond = icmp eq i32 %12, 2
  br i1 %or.cond, label %13, label %_Py_NewRef.exit

13:                                               ; preds = %9
  %14 = load ptr, ptr getelementptr inbounds nuw (i8, ptr @PyDict_Type, i64 200), align 8, !tbaa !55
  %15 = tail call ptr %14(ptr noundef nonnull %0, ptr noundef nonnull %1, i32 noundef %2) #8
  %16 = icmp eq ptr %15, null
  br i1 %16, label %_Py_NewRef.exit, label %17

17:                                               ; preds = %13
  %.val34 = load ptr, ptr %6, align 8, !tbaa !20
  %.not.i36 = icmp eq ptr %.val34, @PyODict_Type
  br i1 %.not.i36, label %PyObject_TypeCheck.exit37.thread, label %PyObject_TypeCheck.exit37

PyObject_TypeCheck.exit37:                        ; preds = %17
  %18 = tail call i32 @PyType_IsSubtype(ptr noundef %.val34, ptr noundef nonnull @PyODict_Type) #8
  %.not = icmp eq i32 %18, 0
  br i1 %.not, label %_Py_NewRef.exit, label %PyObject_TypeCheck.exit37.thread

PyObject_TypeCheck.exit37.thread:                 ; preds = %17, %PyObject_TypeCheck.exit37
  %19 = icmp eq ptr %15, @_Py_FalseStruct
  %or.cond3 = and i1 %10, %19
  br i1 %or.cond3, label %_Py_NewRef.exit, label %20

20:                                               ; preds = %PyObject_TypeCheck.exit37.thread
  %21 = icmp eq ptr %15, @_Py_TrueStruct
  %or.cond5 = and i1 %11, %21
  br i1 %or.cond5, label %_Py_NewRef.exit, label %22

22:                                               ; preds = %20
  %23 = load i32, ptr %15, align 8, !tbaa !38
  %.not.i = icmp sgt i32 %23, -1
  br i1 %.not.i, label %24, label %Py_DECREF.exit

24:                                               ; preds = %22
  %25 = add nsw i32 %23, -1
  store i32 %25, ptr %15, align 8, !tbaa !38
  %26 = icmp eq i32 %25, 0
  br i1 %26, label %27, label %Py_DECREF.exit

27:                                               ; preds = %24
  tail call void @_Py_Dealloc(ptr noundef nonnull %15) #8
  br label %Py_DECREF.exit

Py_DECREF.exit:                                   ; preds = %22, %24, %27
  %28 = tail call fastcc i32 @_odict_keys_equal(ptr noundef nonnull %0, ptr noundef nonnull %1)
  %29 = icmp slt i32 %28, 0
  br i1 %29, label %_Py_NewRef.exit, label %30

30:                                               ; preds = %Py_DECREF.exit
  %31 = zext i1 %10 to i32
  %32 = icmp eq i32 %28, %31
  %33 = select i1 %32, ptr @_Py_TrueStruct, ptr @_Py_FalseStruct
  %34 = load i32, ptr %33, align 8, !tbaa !38
  %35 = icmp slt i32 %34, 0
  br i1 %35, label %_Py_NewRef.exit, label %36

36:                                               ; preds = %30
  %37 = add nuw i32 %34, 1
  store i32 %37, ptr %33, align 8, !tbaa !38
  br label %_Py_NewRef.exit

_Py_NewRef.exit:                                  ; preds = %36, %30, %9, %13, %PyObject_TypeCheck.exit37, %PyObject_TypeCheck.exit37.thread, %20, %Py_DECREF.exit, %PyObject_TypeCheck.exit, %PyObject_TypeCheck.exit.thread
  %.0 = phi ptr [ @_Py_NotImplementedStruct, %PyObject_TypeCheck.exit.thread ], [ @_Py_NotImplementedStruct, %PyObject_TypeCheck.exit ], [ null, %13 ], [ %15, %PyObject_TypeCheck.exit37 ], [ @_Py_FalseStruct, %PyObject_TypeCheck.exit37.thread ], [ @_Py_TrueStruct, %20 ], [ null, %Py_DECREF.exit ], [ @_Py_NotImplementedStruct, %9 ], [ %33, %30 ], [ %33, %36 ]
  ret ptr %.0
}